target datalayout = "e-m:e-p270:32:32-p271:32:32-p272:64:64-i64:64-i128:128-f80:128-n8:16:32:64-S128"
target triple = "x86_64-pc-linux-gnu"

%struct.VduseVirtq = type { %struct.VduseRing, i16, i16, i16, i16, i8, i32, i32, i8, i32, ptr, ptr, i16, i64, ptr }
%struct.VduseRing = type { i32, i64, i64, i64, ptr, ptr, ptr }
%struct.VduseDev = type { ptr, [256 x %struct.VduseIovaRegion], i32, ptr, i32, i32, i16, i16, i64, ptr, i32, i32, ptr, ptr }
%struct.VduseIovaRegion = type { i64, i64, i64, i64 }
%struct.vduse_vq_config = type { i32, i16, [13 x i16] }

; Function Attrs: nounwind uwtable
define dso_local i32 @vduse_dev_setup_queue(ptr noundef %0, i32 noundef %1, i32 noundef %2) #0 {
  %4 = alloca i32, align 4
  %5 = alloca ptr, align 8
  %6 = alloca i32, align 4
  %7 = alloca i32, align 4
  %8 = alloca ptr, align 8
  %9 = alloca %struct.vduse_vq_config, align 4
  %10 = alloca i32, align 4
  store ptr %0, ptr %5, align 8
  store i32 %1, ptr %6, align 4
  store i32 %2, ptr %7, align 4
  call void @llvm.lifetime.start.p0(i64 8, ptr %8) #13
  %11 = load ptr, ptr %5, align 8
  %12 = getelementptr inbounds nuw %struct.VduseDev, ptr %11, i32 0, i32 0
  %13 = load ptr, ptr %12, align 8
  %14 = load i32, ptr %6, align 4
  %15 = sext i32 %14 to i64
  %16 = getelementptr inbounds %struct.VduseVirtq, ptr %13, i64 %15
  store ptr %16, ptr %8, align 8
  call void @llvm.lifetime.start.p0(i64 32, ptr %9) #13
  call void @llvm.memset.p0.i64(ptr align 4 %9, i8 0, i64 32, i1 false)
  %17 = load i32, ptr %7, align 4
  %18 = icmp sgt i32 %17, 1024
  br i1 %18, label %19, label %20

19:                                               ; preds = %3
  store i32 -22, ptr %4, align 4
  store i32 1, ptr %10, align 4
  br label %39

20:                                               ; preds = %3
  %21 = load ptr, ptr %8, align 8
  %22 = getelementptr inbounds nuw %struct.VduseVirtq, ptr %21, i32 0, i32 6
  %23 = load i32, ptr %22, align 4
  %24 = getelementptr inbounds nuw %struct.vduse_vq_config, ptr %9, i32 0, i32 0
  store i32 %23, ptr %24, align 4
  %25 = load i32, ptr %7, align 4
  %26 = trunc i32 %25 to i16
  %27 = getelementptr inbounds nuw %struct.vduse_vq_config, ptr %9, i32 0, i32 1
  store i16 %26, ptr %27, align 4
  %28 = load ptr, ptr %5, align 8
  %29 = getelementptr inbounds nuw %struct.VduseDev, ptr %28, i32 0, i32 10
  %30 = load i32, ptr %29, align 8
  %31 = call i32 (i32, i64, ...) @ioctl(i32 noundef %30, i64 noundef 1075872020, ptr noundef %9) #13
  %32 = icmp ne i32 %31, 0
  br i1 %32, label %33, label %37

33:                                               ; preds = %20
  %34 = call ptr @__errno_location() #14
  %35 = load i32, ptr %34, align 4
  %36 = sub i32 0, %35
  store i32 %36, ptr %4, align 4
  store i32 1, ptr %10, align 4
  br label %39

37:                                               ; preds = %20
  %38 = load ptr, ptr %8, align 8
  call void @vduse_queue_enable(ptr noundef %38)
  store i32 0, ptr %4, align 4
  store i32 1, ptr %10, align 4
  br label %39

39:                                               ; preds = %37, %33, %19
  call void @llvm.lifetime.end.p0(i64 32, ptr %9) #13
  call void @llvm.lifetime.end.p0(i64 8, ptr %8) #13
  %40 = load i32, ptr %4, align 4
  ret i32 %40
}