; Function Attrs: nounwind uwtable
define dso_local i32 @vduse_dev_setup_queue(ptr noundef readonly captures(none) %0, i32 noundef %1, i32 noundef %2) local_unnamed_addr #2 {
  %4 = alloca %struct.vduse_vq_config, align 4
  %5 = load ptr, ptr %0, align 8
  %6 = sext i32 %1 to i64
  %7 = getelementptr inbounds %struct.VduseVirtq, ptr %5, i64 %6
  call void @llvm.lifetime.start.p0(i64 32, ptr nonnull %4) #20
  %8 = getelementptr inbounds nuw i8, ptr %4, i64 4
  call void @llvm.memset.p0.i64(ptr noundef nonnull align 4 dereferenceable(32) %8, i8 0, i64 28, i1 false)
  %9 = icmp sgt i32 %2, 1024
  br i1 %9, label %23, label %10

10:                                               ; preds = %3
  %11 = getelementptr inbounds nuw i8, ptr %7, i64 68
  %12 = load i32, ptr %11, align 4
  store i32 %12, ptr %4, align 4
  %13 = trunc i32 %2 to i16
  %14 = getelementptr inbounds nuw i8, ptr %4, i64 4
  store i16 %13, ptr %14, align 4
  %15 = getelementptr inbounds nuw i8, ptr %0, i64 8248
  %16 = load i32, ptr %15, align 8
  %17 = call i32 (i32, i64, ...) @ioctl(i32 noundef %16, i64 noundef 1075872020, ptr noundef nonnull %4) #20
  %.not = icmp eq i32 %17, 0
  br i1 %.not, label %22, label %18

18:                                               ; preds = %10
  %19 = tail call ptr @__errno_location() #21
  %20 = load i32, ptr %19, align 4
  %21 = sub i32 0, %20
  br label %23

22:                                               ; preds = %10
  call fastcc void @vduse_queue_enable(ptr noundef nonnull %7)
  br label %23

23:                                               ; preds = %3, %22, %18
  %.0 = phi i32 [ %21, %18 ], [ 0, %22 ], [ -22, %3 ]
  call void @llvm.lifetime.end.p0(i64 32, ptr nonnull %4) #20
  ret i32 %.0
}